target datalayout = "e-m:e-p270:32:32-p271:32:32-p272:64:64-i64:64-i128:128-f80:128-n8:16:32:64-S128"
target triple = "x86_64-pc-linux-gnu"

@.str.153 = private unnamed_addr constant [16 x i8] c"Possible Values\00", align 1

; Function Attrs: nounwind uwtable
define internal ptr @_find_key_val(ptr noundef %0, ptr noundef %1) #0 {
  %3 = alloca ptr, align 8
  %4 = alloca ptr, align 8
  %5 = alloca ptr, align 8
  %6 = alloca ptr, align 8
  %7 = alloca ptr, align 8
  %8 = alloca ptr, align 8
  %9 = alloca i32, align 4
  %10 = alloca i32, align 4
  store ptr %0, ptr %4, align 8
  store ptr %1, ptr %5, align 8
  call void @llvm.lifetime.start.p0(i64 8, ptr %6) #9
  store ptr null, ptr %6, align 8
  call void @llvm.lifetime.start.p0(i64 8, ptr %7) #9
  call void @llvm.lifetime.start.p0(i64 8, ptr %8) #9
  store ptr null, ptr %8, align 8
  call void @llvm.lifetime.start.p0(i64 4, ptr %9) #9
  %11 = load ptr, ptr %4, align 8
  %12 = icmp eq ptr %11, null
  br i1 %12, label %16, label %13

13:                                               ; preds = %2
  %14 = load ptr, ptr %5, align 8
  %15 = icmp eq ptr %14, null
  br i1 %15, label %16, label %17

16:                                               ; preds = %13, %2
  store ptr null, ptr %3, align 8
  store i32 1, ptr %10, align 4
  br label %116

17:                                               ; preds = %13
  %18 = load ptr, ptr %5, align 8
  %19 = call ptr @strstr(ptr noundef %18, ptr noundef @.str.153) #12
  store ptr %19, ptr %7, align 8
  %20 = icmp ne ptr %19, null
  br i1 %20, label %21, label %24

21:                                               ; preds = %17
  %22 = load ptr, ptr %7, align 8
  %23 = getelementptr inbounds i8, ptr %22, i64 15
  store ptr %23, ptr %7, align 8
  br label %26

24:                                               ; preds = %17
  %25 = load ptr, ptr %5, align 8
  store ptr %25, ptr %7, align 8
  br label %26

26:                                               ; preds = %24, %21
  %27 = load ptr, ptr %7, align 8
  %28 = load ptr, ptr %4, align 8
  %29 = call ptr @strstr(ptr noundef %27, ptr noundef %28) #12
  store ptr %29, ptr %7, align 8
  %30 = icmp ne ptr %29, null
  br i1 %30, label %31, label %34

31:                                               ; preds = %26
  %32 = load ptr, ptr %7, align 8
  %33 = call ptr @strchr(ptr noundef %32, i32 noundef 58) #12
  store ptr %33, ptr %6, align 8
  br label %34

34:                                               ; preds = %31, %26
  %35 = load ptr, ptr %6, align 8
  %36 = icmp ne ptr %35, null
  br i1 %36, label %37, label %114

37:                                               ; preds = %34
  %38 = load ptr, ptr %6, align 8
  %39 = getelementptr inbounds nuw i8, ptr %38, i32 1
  store ptr %39, ptr %6, align 8
  br label %40

40:                                               ; preds = %62, %37
  %41 = load ptr, ptr %6, align 8
  %42 = getelementptr inbounds i8, ptr %41, i64 0
  %43 = load i8, ptr %42, align 1
  %44 = sext i8 %43 to i32
  %45 = icmp ne i32 %44, 0
  br i1 %45, label %46, label %60

46:                                               ; preds = %40
  %47 = call ptr @__ctype_b_loc() #11
  %48 = load ptr, ptr %47, align 8
  %49 = load ptr, ptr %6, align 8
  %50 = getelementptr inbounds i8, ptr %49, i64 0
  %51 = load i8, ptr %50, align 1
  %52 = sext i8 %51 to i32
  %53 = sext i32 %52 to i64
  %54 = getelementptr inbounds i16, ptr %48, i64 %53
  %55 = load i16, ptr %54, align 2
  %56 = zext i16 %55 to i32
  %57 = and i32 %56, 2048
  %58 = icmp ne i32 %57, 0
  %59 = xor i1 %58, true
  br label %60

60:                                               ; preds = %46, %40
  %61 = phi i1 [ false, %40 ], [ %59, %46 ]
  br i1 %61, label %62, label %65

62:                                               ; preds = %60
  %63 = load ptr, ptr %6, align 8
  %64 = getelementptr inbounds nuw i8, ptr %63, i32 1
  store ptr %64, ptr %6, align 8
  br label %40, !llvm.loop !35

65:                                               ; preds = %60
  %66 = call ptr @__ctype_b_loc() #11
  %67 = load ptr, ptr %66, align 8
  %68 = load ptr, ptr %6, align 8
  %69 = getelementptr inbounds i8, ptr %68, i64 0
  %70 = load i8, ptr %69, align 1
  %71 = sext i8 %70 to i32
  %72 = sext i32 %71 to i64
  %73 = getelementptr inbounds i16, ptr %67, i64 %72
  %74 = load i16, ptr %73, align 2
  %75 = zext i16 %74 to i32
  %76 = and i32 %75, 2048
  %77 = icmp ne i32 %76, 0
  br i1 %77, label %78, label %113

78:                                               ; preds = %65
  %79 = load ptr, ptr %6, align 8
  %80 = call ptr @xstrdup(ptr noundef %79)
  store ptr %80, ptr %8, align 8
  store i32 1, ptr %9, align 4
  br label %81

81:                                               ; preds = %109, %78
  %82 = load ptr, ptr %8, align 8
  %83 = load i32, ptr %9, align 4
  %84 = sext i32 %83 to i64
  %85 = getelementptr inbounds i8, ptr %82, i64 %84
  %86 = load i8, ptr %85, align 1
  %87 = icmp ne i8 %86, 0
  br i1 %87, label %88, label %112

88:                                               ; preds = %81
  %89 = call ptr @__ctype_b_loc() #11
  %90 = load ptr, ptr %89, align 8
  %91 = load ptr, ptr %8, align 8
  %92 = load i32, ptr %9, align 4
  %93 = sext i32 %92 to i64
  %94 = getelementptr inbounds i8, ptr %91, i64 %93
  %95 = load i8, ptr %94, align 1
  %96 = sext i8 %95 to i32
  %97 = sext i32 %96 to i64
  %98 = getelementptr inbounds i16, ptr %90, i64 %97
  %99 = load i16, ptr %98, align 2
  %100 = zext i16 %99 to i32
  %101 = and i32 %100, 2048
  %102 = icmp ne i32 %101, 0
  br i1 %102, label %108, label %103

103:                                              ; preds = %88
  %104 = load ptr, ptr %8, align 8
  %105 = load i32, ptr %9, align 4
  %106 = sext i32 %105 to i64
  %107 = getelementptr inbounds i8, ptr %104, i64 %106
  store i8 0, ptr %107, align 1
  br label %112

108:                                              ; preds = %88
  br label %109

109:                                              ; preds = %108
  %110 = load i32, ptr %9, align 4
  %111 = add nsw i32 %110, 1
  store i32 %111, ptr %9, align 4
  br label %81, !llvm.loop !36

112:                                              ; preds = %103, %81
  br label %113

113:                                              ; preds = %112, %65
  br label %114

114:                                              ; preds = %113, %34
  %115 = load ptr, ptr %8, align 8
  store ptr %115, ptr %3, align 8
  store i32 1, ptr %10, align 4
  br label %116

116:                                              ; preds = %114, %16
  call void @llvm.lifetime.end.p0(i64 4, ptr %9) #9
  call void @llvm.lifetime.end.p0(i64 8, ptr %8) #9
  call void @llvm.lifetime.end.p0(i64 8, ptr %7) #9
  call void @llvm.lifetime.end.p0(i64 8, ptr %6) #9
  %117 = load ptr, ptr %3, align 8
  ret ptr %117
}