; Function Attrs: nounwind uwtable
define internal fastcc ptr @_find_key_val(ptr noundef readonly captures(address_is_null) %0, ptr noundef %1) unnamed_addr #0 {
  %3 = icmp eq ptr %0, null
  %4 = icmp eq ptr %1, null
  %or.cond = or i1 %3, %4
  br i1 %or.cond, label %.thread, label %5

5:                                                ; preds = %2
  %6 = tail call ptr @strstr(ptr noundef nonnull dereferenceable(1) %1, ptr noundef nonnull dereferenceable(1) @.str.153) #16
  %.not = icmp eq ptr %6, null
  %7 = getelementptr inbounds nuw i8, ptr %6, i64 15
  %.025 = select i1 %.not, ptr %1, ptr %7
  %8 = tail call ptr @strstr(ptr noundef nonnull dereferenceable(1) %.025, ptr noundef nonnull dereferenceable(1) %0) #16
  %.not34 = icmp eq ptr %8, null
  br i1 %.not34, label %.thread, label %9

9:                                                ; preds = %5
  %10 = tail call ptr @strchr(ptr noundef nonnull dereferenceable(1) %8, i32 noundef 58) #16
  %.not35 = icmp eq ptr %10, null
  br i1 %.not35, label %.thread, label %.preheader.preheader

.preheader.preheader:                             ; preds = %9
  %.pre = tail call ptr @__ctype_b_loc() #17
  br label %.preheader

.preheader:                                       ; preds = %.preheader.preheader, %12
  %.026.pn = phi ptr [ %.1, %12 ], [ %10, %.preheader.preheader ]
  %.1 = getelementptr inbounds nuw i8, ptr %.026.pn, i64 1
  %11 = load i8, ptr %.1, align 1
  %.not36 = icmp eq i8 %11, 0
  br i1 %.not36, label %.critedge, label %12

12:                                               ; preds = %.preheader
  %13 = load ptr, ptr %.pre, align 8
  %14 = sext i8 %11 to i64
  %15 = getelementptr inbounds i16, ptr %13, i64 %14
  %16 = load i16, ptr %15, align 2
  %17 = and i16 %16, 2048
  %.not37 = icmp eq i16 %17, 0
  br i1 %.not37, label %.preheader, label %.critedgesplit, !llvm.loop !31

.critedgesplit:                                   ; preds = %12
  %18 = sext i8 %11 to i64
  br label %.critedge

.critedge:                                        ; preds = %.preheader, %.critedgesplit
  %.lcssa48 = phi i64 [ %18, %.critedgesplit ], [ 0, %.preheader ]
  %19 = load ptr, ptr %.pre, align 8
  %20 = getelementptr inbounds i16, ptr %19, i64 %.lcssa48
  %21 = load i16, ptr %20, align 2
  %22 = and i16 %21, 2048
  %.not38 = icmp eq i16 %22, 0
  br i1 %.not38, label %.thread, label %23

23:                                               ; preds = %.critedge
  %24 = tail call ptr @xstrdup(ptr noundef nonnull %.1) #14
  %25 = getelementptr inbounds nuw i8, ptr %24, i64 1
  %26 = load i8, ptr %25, align 1
  %.not3945 = icmp eq i8 %26, 0
  br i1 %.not3945, label %.thread, label %.lr.ph

.lr.ph:                                           ; preds = %23
  %27 = load ptr, ptr %.pre, align 8
  br label %31

28:                                               ; preds = %31
  %indvars.iv.next = add nuw nsw i64 %indvars.iv, 1
  %29 = getelementptr inbounds nuw i8, ptr %24, i64 %indvars.iv.next
  %30 = load i8, ptr %29, align 1
  %.not39 = icmp eq i8 %30, 0
  br i1 %.not39, label %.thread, label %31, !llvm.loop !32

31:                                               ; preds = %.lr.ph, %28
  %indvars.iv = phi i64 [ 1, %.lr.ph ], [ %indvars.iv.next, %28 ]
  %32 = phi i8 [ %26, %.lr.ph ], [ %30, %28 ]
  %33 = sext i8 %32 to i64
  %34 = getelementptr inbounds i16, ptr %27, i64 %33
  %35 = load i16, ptr %34, align 2
  %36 = and i16 %35, 2048
  %.not40 = icmp eq i16 %36, 0
  br i1 %.not40, label %37, label %28

37:                                               ; preds = %31
  %38 = getelementptr inbounds nuw i8, ptr %24, i64 %indvars.iv
  store i8 0, ptr %38, align 1
  br label %.thread

.thread:                                          ; preds = %28, %23, %5, %9, %37, %.critedge, %2
  %.027 = phi ptr [ null, %2 ], [ %24, %37 ], [ null, %.critedge ], [ null, %9 ], [ null, %5 ], [ %24, %23 ], [ %24, %28 ]
  ret ptr %.027
}